; Function Attrs: mustprogress nofree norecurse nosync nounwind willreturn memory(read, inaccessiblemem: none) uwtable
define { ptr, i32 } @_ZN10OpenSubdiv6v3_6_03Far10PatchTable14getPatchParamsEi(ptr nocapture noundef nonnull readonly align 8 dereferenceable(273) %0, i32 noundef %1) local_unnamed_addr #6 align 2 {
  %3 = getelementptr inbounds nuw i8, ptr %0, i64 8
  %4 = sext i32 %1 to i64
  %5 = load ptr, ptr %3, align 8
  %6 = getelementptr inbounds %"struct.OpenSubdiv::v3_6_0::Far::PatchTable::PatchArray", ptr %5, i64 %4
  %7 = getelementptr inbounds nuw i8, ptr %0, i64 56
  %8 = getelementptr inbounds nuw i8, ptr %6, i64 12
  %9 = load i32, ptr %8, align 4
  %10 = sext i32 %9 to i64
  %11 = load ptr, ptr %7, align 8
  %12 = getelementptr inbounds %"struct.OpenSubdiv::v3_6_0::Far::PatchParam", ptr %11, i64 %10
  %13 = getelementptr inbounds nuw i8, ptr %6, i64 4
  %14 = load i32, ptr %13, align 4
  %.fca.0.insert = insertvalue { ptr, i32 } poison, ptr %12, 0
  %.fca.1.insert = insertvalue { ptr, i32 } %.fca.0.insert, i32 %14, 1
  ret { ptr, i32 } %.fca.1.insert
}